; Function Attrs: nounwind uwtable
define noalias noundef ptr @Gia_Iso2ManStart(ptr noundef %0) local_unnamed_addr #0 {
  %2 = tail call noalias dereferenceable_or_null(144) ptr @calloc(i64 noundef 1, i64 noundef 144) #27
  store ptr %0, ptr %2, align 8, !tbaa !48
  %3 = getelementptr i8, ptr %0, i64 24
  %.val = load i32, ptr %3, align 8, !tbaa !29
  %4 = getelementptr inbounds nuw i8, ptr %2, i64 8
  store i32 %.val, ptr %4, align 8, !tbaa !50
  %5 = tail call noalias dereferenceable_or_null(16) ptr @malloc(i64 noundef 16) #24
  %6 = add i32 %.val, -1
  %or.cond.i.i = icmp ult i32 %6, 15
  %spec.store.select.i.i = select i1 %or.cond.i.i, i32 16, i32 %.val
  %7 = getelementptr inbounds nuw i8, ptr %5, i64 4
  store i32 %spec.store.select.i.i, ptr %5, align 8, !tbaa !31
  %.not.i.i = icmp eq i32 %spec.store.select.i.i, 0
  br i1 %.not.i.i, label %Vec_IntAlloc.exit.thread.i, label %Vec_IntAlloc.exit.i

Vec_IntAlloc.exit.thread.i:                       ; preds = %1
  %8 = getelementptr inbounds nuw i8, ptr %5, i64 8
  store ptr null, ptr %8, align 8, !tbaa !32
  store i32 %.val, ptr %7, align 4, !tbaa !28
  br label %Vec_IntStartFull.exit

Vec_IntAlloc.exit.i:                              ; preds = %1
  %9 = sext i32 %spec.store.select.i.i to i64
  %10 = shl nsw i64 %9, 2
  %11 = tail call noalias ptr @malloc(i64 noundef %10) #24
  %12 = getelementptr inbounds nuw i8, ptr %5, i64 8
  store ptr %11, ptr %12, align 8, !tbaa !32
  store i32 %.val, ptr %7, align 4, !tbaa !28
  %.not.i = icmp eq ptr %11, null
  br i1 %.not.i, label %Vec_IntStartFull.exit, label %13

13:                                               ; preds = %Vec_IntAlloc.exit.i
  %14 = sext i32 %.val to i64
  %15 = shl nsw i64 %14, 2
  tail call void @llvm.memset.p0.i64(ptr nonnull align 4 %11, i8 -1, i64 %15, i1 false)
  br label %Vec_IntStartFull.exit

Vec_IntStartFull.exit:                            ; preds = %Vec_IntAlloc.exit.thread.i, %Vec_IntAlloc.exit.i, %13
  %16 = getelementptr inbounds nuw i8, ptr %2, i64 16
  store ptr %5, ptr %16, align 8, !tbaa !51
  %17 = tail call ptr @Gia_Iso2ManCollectTies(ptr noundef nonnull %0)
  %18 = getelementptr inbounds nuw i8, ptr %2, i64 24
  store ptr %17, ptr %18, align 8, !tbaa !46
  br label %.loopexit.i

.loopexit.i:                                      ; preds = %.loopexit.i.backedge, %Vec_IntStartFull.exit
  %.012.i = phi i32 [ %6, %Vec_IntStartFull.exit ], [ %19, %.loopexit.i.backedge ]
  %19 = add i32 %.012.i, 1
  %20 = and i32 %.012.i, 1
  %.not.not.i = icmp eq i32 %20, 0
  br i1 %.not.not.i, label %.preheader.i, label %.loopexit.i.backedge

.loopexit.i.backedge:                             ; preds = %.lr.ph.i, %.loopexit.i
  br label %.loopexit.i, !llvm.loop !52

.preheader.i:                                     ; preds = %.loopexit.i
  %.not15.i = icmp ult i32 %19, 9
  br i1 %.not15.i, label %Abc_PrimeCudd.exit, label %.lr.ph.i

21:                                               ; preds = %.lr.ph.i
  %22 = add nuw nsw i32 %.01116.i, 2
  %23 = mul nuw nsw i32 %22, %22
  %.not.i23 = icmp ugt i32 %23, %19
  br i1 %.not.i23, label %Abc_PrimeCudd.exit, label %.lr.ph.i, !llvm.loop !53

.lr.ph.i:                                         ; preds = %.preheader.i, %21
  %.01116.i = phi i32 [ %22, %21 ], [ 3, %.preheader.i ]
  %24 = urem i32 %19, %.01116.i
  %25 = icmp eq i32 %24, 0
  br i1 %25, label %.loopexit.i.backedge, label %21, !llvm.loop !52

Abc_PrimeCudd.exit:                               ; preds = %.preheader.i, %21
  %26 = tail call noalias dereferenceable_or_null(16) ptr @malloc(i64 noundef 16) #24
  %or.cond.i.i24 = icmp ult i32 %.012.i, 15
  %spec.store.select.i.i25 = select i1 %or.cond.i.i24, i32 16, i32 %19
  store i32 %spec.store.select.i.i25, ptr %26, align 8, !tbaa !31
  %27 = getelementptr inbounds nuw i8, ptr %26, i64 4
  %28 = sext i32 %spec.store.select.i.i25 to i64
  %29 = shl nsw i64 %28, 2
  %30 = tail call noalias ptr @malloc(i64 noundef %29) #24
  %31 = getelementptr inbounds nuw i8, ptr %26, i64 8
  store ptr %30, ptr %31, align 8, !tbaa !32
  store i32 %19, ptr %27, align 4, !tbaa !28
  %.not.i28 = icmp eq ptr %30, null
  br i1 %.not.i28, label %Vec_IntStart.exit, label %32

32:                                               ; preds = %Abc_PrimeCudd.exit
  %33 = sext i32 %19 to i64
  %34 = shl nsw i64 %33, 2
  tail call void @llvm.memset.p0.i64(ptr nonnull align 4 %30, i8 0, i64 %34, i1 false)
  br label %Vec_IntStart.exit

Vec_IntStart.exit:                                ; preds = %Abc_PrimeCudd.exit, %32
  %35 = getelementptr inbounds nuw i8, ptr %2, i64 32
  store ptr %26, ptr %35, align 8, !tbaa !54
  %36 = tail call noalias dereferenceable_or_null(16) ptr @malloc(i64 noundef 16) #24
  %37 = getelementptr inbounds nuw i8, ptr %36, i64 4
  store i32 0, ptr %37, align 4, !tbaa !28
  store i32 1000, ptr %36, align 8, !tbaa !31
  %38 = tail call noalias dereferenceable_or_null(4000) ptr @malloc(i64 noundef 4000) #24
  %39 = getelementptr inbounds nuw i8, ptr %36, i64 8
  store ptr %38, ptr %39, align 8, !tbaa !32
  %40 = getelementptr inbounds nuw i8, ptr %2, i64 40
  store ptr %36, ptr %40, align 8, !tbaa !55
  %41 = tail call noalias dereferenceable_or_null(16) ptr @malloc(i64 noundef 16) #24
  %42 = getelementptr inbounds nuw i8, ptr %41, i64 4
  store i32 0, ptr %42, align 4, !tbaa !56
  store i32 1000, ptr %41, align 8, !tbaa !58
  %43 = tail call noalias dereferenceable_or_null(8000) ptr @malloc(i64 noundef 8000) #24
  %44 = getelementptr inbounds nuw i8, ptr %41, i64 8
  store ptr %43, ptr %44, align 8, !tbaa !59
  %45 = getelementptr inbounds nuw i8, ptr %2, i64 48
  store ptr %41, ptr %45, align 8, !tbaa !60
  %46 = tail call noalias dereferenceable_or_null(16) ptr @malloc(i64 noundef 16) #24
  %47 = getelementptr inbounds nuw i8, ptr %46, i64 4
  store i32 0, ptr %47, align 4, !tbaa !28
  store i32 10000, ptr %46, align 8, !tbaa !31
  %48 = tail call noalias dereferenceable_or_null(40000) ptr @malloc(i64 noundef 40000) #24
  %49 = getelementptr inbounds nuw i8, ptr %46, i64 8
  store ptr %48, ptr %49, align 8, !tbaa !32
  %50 = getelementptr inbounds nuw i8, ptr %2, i64 56
  store ptr %46, ptr %50, align 8, !tbaa !61
  %51 = tail call noalias dereferenceable_or_null(16) ptr @malloc(i64 noundef 16) #24
  %52 = getelementptr inbounds nuw i8, ptr %51, i64 4
  store i32 0, ptr %52, align 4, !tbaa !28
  store i32 10000, ptr %51, align 8, !tbaa !31
  %53 = tail call noalias dereferenceable_or_null(40000) ptr @malloc(i64 noundef 40000) #24
  %54 = getelementptr inbounds nuw i8, ptr %51, i64 8
  store ptr %53, ptr %54, align 8, !tbaa !32
  %55 = getelementptr inbounds nuw i8, ptr %2, i64 64
  store ptr %51, ptr %55, align 8, !tbaa !62
  %56 = tail call noalias dereferenceable_or_null(16) ptr @malloc(i64 noundef 16) #24
  %57 = getelementptr inbounds nuw i8, ptr %56, i64 4
  store i32 %spec.store.select.i.i, ptr %56, align 8, !tbaa !31
  br i1 %.not.i.i, label %Vec_IntAlloc.exit.thread.i42, label %Vec_IntAlloc.exit.i33

Vec_IntAlloc.exit.i33:                            ; preds = %Vec_IntStart.exit
  %58 = sext i32 %spec.store.select.i.i to i64
  %59 = shl nsw i64 %58, 2
  %60 = tail call noalias ptr @malloc(i64 noundef %59) #24
  %61 = getelementptr inbounds nuw i8, ptr %56, i64 8
  store ptr %60, ptr %61, align 8, !tbaa !32
  store i32 %.val, ptr %57, align 4, !tbaa !28
  %.not.i34 = icmp eq ptr %60, null
  br i1 %.not.i34, label %Vec_IntAlloc.exit.i40, label %62

62:                                               ; preds = %Vec_IntAlloc.exit.i33
  %63 = sext i32 %.val to i64
  %64 = shl nsw i64 %63, 2
  tail call void @llvm.memset.p0.i64(ptr nonnull align 4 %60, i8 0, i64 %64, i1 false)
  br label %Vec_IntAlloc.exit.i40

Vec_IntAlloc.exit.thread.i42:                     ; preds = %Vec_IntStart.exit
  %65 = getelementptr inbounds nuw i8, ptr %56, i64 8
  store ptr null, ptr %65, align 8, !tbaa !32
  store i32 %.val, ptr %57, align 4, !tbaa !28
  %66 = getelementptr inbounds nuw i8, ptr %2, i64 72
  store ptr %56, ptr %66, align 8, !tbaa !63
  %67 = tail call noalias dereferenceable_or_null(16) ptr @malloc(i64 noundef 16) #24
  %68 = getelementptr inbounds nuw i8, ptr %67, i64 4
  store i32 0, ptr %67, align 8, !tbaa !31
  %69 = getelementptr inbounds nuw i8, ptr %67, i64 8
  store ptr null, ptr %69, align 8, !tbaa !32
  store i32 %.val, ptr %68, align 4, !tbaa !28
  br label %Vec_IntStart.exit43

Vec_IntAlloc.exit.i40:                            ; preds = %Vec_IntAlloc.exit.i33, %62
  %70 = getelementptr inbounds nuw i8, ptr %2, i64 72
  store ptr %56, ptr %70, align 8, !tbaa !63
  %71 = tail call noalias dereferenceable_or_null(16) ptr @malloc(i64 noundef 16) #24
  %72 = getelementptr inbounds nuw i8, ptr %71, i64 4
  store i32 %spec.store.select.i.i, ptr %71, align 8, !tbaa !31
  %73 = tail call noalias ptr @malloc(i64 noundef %59) #24
  %74 = getelementptr inbounds nuw i8, ptr %71, i64 8
  store ptr %73, ptr %74, align 8, !tbaa !32
  store i32 %.val, ptr %72, align 4, !tbaa !28
  %.not.i41 = icmp eq ptr %73, null
  br i1 %.not.i41, label %Vec_IntStart.exit43, label %75

75:                                               ; preds = %Vec_IntAlloc.exit.i40
  %76 = sext i32 %.val to i64
  %77 = shl nsw i64 %76, 2
  tail call void @llvm.memset.p0.i64(ptr nonnull align 4 %73, i8 0, i64 %77, i1 false)
  br label %Vec_IntStart.exit43

Vec_IntStart.exit43:                              ; preds = %Vec_IntAlloc.exit.thread.i42, %Vec_IntAlloc.exit.i40, %75
  %78 = phi ptr [ %67, %Vec_IntAlloc.exit.thread.i42 ], [ %71, %Vec_IntAlloc.exit.i40 ], [ %71, %75 ]
  %79 = getelementptr inbounds nuw i8, ptr %2, i64 12
  %80 = getelementptr inbounds nuw i8, ptr %2, i64 80
  store ptr %78, ptr %80, align 8, !tbaa !64
  store i32 1, ptr %79, align 4, !tbaa !65
  %81 = getelementptr i8, ptr %5, i64 8
  %.val22 = load ptr, ptr %81, align 8, !tbaa !32
  store i32 0, ptr %.val22, align 4, !tbaa !34
  ret ptr %2
}